target datalayout = "e-m:e-p270:32:32-p271:32:32-p272:64:64-i64:64-i128:128-f80:128-n8:16:32:64-S128"
target triple = "x86_64-pc-linux-gnu"

%struct.ssl_excert_st = type { i32, ptr, i32, ptr, ptr, ptr, ptr, ptr, i32, ptr, ptr }

@bio_err = external global ptr, align 8
@.str.26 = private unnamed_addr constant [27 x i8] c"../openssl/apps/lib/s_cb.c\00", align 1
@.str.84 = private unnamed_addr constant [18 x i8] c"Missing filename\0A\00", align 1
@.str.85 = private unnamed_addr constant [19 x i8] c"Server Certificate\00", align 1
@.str.86 = private unnamed_addr constant [11 x i8] c"server key\00", align 1
@.str.87 = private unnamed_addr constant [13 x i8] c"server chain\00", align 1

; Function Attrs: nounwind uwtable
define void @ssl_excert_free(ptr noundef %0) #0 {
  %2 = alloca ptr, align 8
  %3 = alloca ptr, align 8
  %4 = alloca i32, align 4
  store ptr %0, ptr %2, align 8, !tbaa !68
  call void @llvm.lifetime.start.p0(i64 8, ptr %3) #10
  %5 = load ptr, ptr %2, align 8, !tbaa !68
  %6 = icmp eq ptr %5, null
  br i1 %6, label %7, label %8

7:                                                ; preds = %1
  store i32 1, ptr %4, align 4
  br label %28

8:                                                ; preds = %1
  br label %9

9:                                                ; preds = %12, %8
  %10 = load ptr, ptr %2, align 8, !tbaa !68
  %11 = icmp ne ptr %10, null
  br i1 %11, label %12, label %27

12:                                               ; preds = %9
  %13 = load ptr, ptr %2, align 8, !tbaa !68
  %14 = getelementptr inbounds nuw %struct.ssl_excert_st, ptr %13, i32 0, i32 5
  %15 = load ptr, ptr %14, align 8, !tbaa !73
  call void @X509_free(ptr noundef %15)
  %16 = load ptr, ptr %2, align 8, !tbaa !68
  %17 = getelementptr inbounds nuw %struct.ssl_excert_st, ptr %16, i32 0, i32 6
  %18 = load ptr, ptr %17, align 8, !tbaa !74
  call void @EVP_PKEY_free(ptr noundef %18)
  %19 = load ptr, ptr %2, align 8, !tbaa !68
  %20 = getelementptr inbounds nuw %struct.ssl_excert_st, ptr %19, i32 0, i32 7
  %21 = load ptr, ptr %20, align 8, !tbaa !75
  call void @OSSL_STACK_OF_X509_free(ptr noundef %21)
  %22 = load ptr, ptr %2, align 8, !tbaa !68
  store ptr %22, ptr %3, align 8, !tbaa !68
  %23 = load ptr, ptr %2, align 8, !tbaa !68
  %24 = getelementptr inbounds nuw %struct.ssl_excert_st, ptr %23, i32 0, i32 9
  %25 = load ptr, ptr %24, align 8, !tbaa !70
  store ptr %25, ptr %2, align 8, !tbaa !68
  %26 = load ptr, ptr %3, align 8, !tbaa !68
  call void @CRYPTO_free(ptr noundef %26, ptr noundef @.str.26, i32 noundef 1092)
  br label %9, !llvm.loop !79

27:                                               ; preds = %9
  store i32 0, ptr %4, align 4
  br label %28

28:                                               ; preds = %27, %7
  call void @llvm.lifetime.end.p0(i64 8, ptr %3) #10
  %29 = load i32, ptr %4, align 4
  switch i32 %29, label %31 [
    i32 0, label %30
    i32 1, label %30
  ]

30:                                               ; preds = %28, %28
  ret void

31:                                               ; preds = %28
  unreachable
}

; Function Attrs: nounwind uwtable
define i32 @load_excert(ptr noundef %0) #0 {
  %2 = alloca i32, align 4
  %3 = alloca ptr, align 8
  %4 = alloca ptr, align 8
  %5 = alloca i32, align 4
  store ptr %0, ptr %3, align 8, !tbaa !80
  call void @llvm.lifetime.start.p0(i64 8, ptr %4) #10
  %6 = load ptr, ptr %3, align 8, !tbaa !80
  %7 = load ptr, ptr %6, align 8, !tbaa !68
  store ptr %7, ptr %4, align 8, !tbaa !68
  %8 = load ptr, ptr %4, align 8, !tbaa !68
  %9 = icmp eq ptr %8, null
  br i1 %9, label %10, label %11

10:                                               ; preds = %1
  store i32 1, ptr %2, align 4
  store i32 1, ptr %5, align 4
  br label %103

11:                                               ; preds = %1
  %12 = load ptr, ptr %4, align 8, !tbaa !68
  %13 = getelementptr inbounds nuw %struct.ssl_excert_st, ptr %12, i32 0, i32 1
  %14 = load ptr, ptr %13, align 8, !tbaa !82
  %15 = icmp eq ptr %14, null
  br i1 %15, label %16, label %24

16:                                               ; preds = %11
  %17 = load ptr, ptr %4, align 8, !tbaa !68
  %18 = getelementptr inbounds nuw %struct.ssl_excert_st, ptr %17, i32 0, i32 9
  %19 = load ptr, ptr %18, align 8, !tbaa !70
  %20 = icmp eq ptr %19, null
  br i1 %20, label %21, label %24

21:                                               ; preds = %16
  %22 = load ptr, ptr %4, align 8, !tbaa !68
  call void @ssl_excert_free(ptr noundef %22)
  %23 = load ptr, ptr %3, align 8, !tbaa !80
  store ptr null, ptr %23, align 8, !tbaa !68
  store i32 1, ptr %2, align 4
  store i32 1, ptr %5, align 4
  br label %103

24:                                               ; preds = %16, %11
  br label %25

25:                                               ; preds = %98, %24
  %26 = load ptr, ptr %4, align 8, !tbaa !68
  %27 = icmp ne ptr %26, null
  br i1 %27, label %28, label %102

28:                                               ; preds = %25
  %29 = load ptr, ptr %4, align 8, !tbaa !68
  %30 = getelementptr inbounds nuw %struct.ssl_excert_st, ptr %29, i32 0, i32 1
  %31 = load ptr, ptr %30, align 8, !tbaa !82
  %32 = icmp eq ptr %31, null
  br i1 %32, label %33, label %36

33:                                               ; preds = %28
  %34 = load ptr, ptr @bio_err, align 8, !tbaa !14
  %35 = call i32 (ptr, ptr, ...) @BIO_printf(ptr noundef %34, ptr noundef @.str.84)
  store i32 0, ptr %2, align 4
  store i32 1, ptr %5, align 4
  br label %103

36:                                               ; preds = %28
  %37 = load ptr, ptr %4, align 8, !tbaa !68
  %38 = getelementptr inbounds nuw %struct.ssl_excert_st, ptr %37, i32 0, i32 1
  %39 = load ptr, ptr %38, align 8, !tbaa !82
  %40 = load ptr, ptr %4, align 8, !tbaa !68
  %41 = getelementptr inbounds nuw %struct.ssl_excert_st, ptr %40, i32 0, i32 0
  %42 = load i32, ptr %41, align 8, !tbaa !83
  %43 = call ptr @load_cert_pass(ptr noundef %39, i32 noundef %42, i32 noundef 1, ptr noundef null, ptr noundef @.str.85)
  %44 = load ptr, ptr %4, align 8, !tbaa !68
  %45 = getelementptr inbounds nuw %struct.ssl_excert_st, ptr %44, i32 0, i32 5
  store ptr %43, ptr %45, align 8, !tbaa !73
  %46 = load ptr, ptr %4, align 8, !tbaa !68
  %47 = getelementptr inbounds nuw %struct.ssl_excert_st, ptr %46, i32 0, i32 5
  %48 = load ptr, ptr %47, align 8, !tbaa !73
  %49 = icmp eq ptr %48, null
  br i1 %49, label %50, label %51

50:                                               ; preds = %36
  store i32 0, ptr %2, align 4
  store i32 1, ptr %5, align 4
  br label %103

51:                                               ; preds = %36
  %52 = load ptr, ptr %4, align 8, !tbaa !68
  %53 = getelementptr inbounds nuw %struct.ssl_excert_st, ptr %52, i32 0, i32 3
  %54 = load ptr, ptr %53, align 8, !tbaa !84
  %55 = icmp ne ptr %54, null
  br i1 %55, label %56, label %66

56:                                               ; preds = %51
  %57 = load ptr, ptr %4, align 8, !tbaa !68
  %58 = getelementptr inbounds nuw %struct.ssl_excert_st, ptr %57, i32 0, i32 3
  %59 = load ptr, ptr %58, align 8, !tbaa !84
  %60 = load ptr, ptr %4, align 8, !tbaa !68
  %61 = getelementptr inbounds nuw %struct.ssl_excert_st, ptr %60, i32 0, i32 2
  %62 = load i32, ptr %61, align 8, !tbaa !85
  %63 = call ptr @load_key(ptr noundef %59, i32 noundef %62, i32 noundef 0, ptr noundef null, ptr noundef null, ptr noundef @.str.86)
  %64 = load ptr, ptr %4, align 8, !tbaa !68
  %65 = getelementptr inbounds nuw %struct.ssl_excert_st, ptr %64, i32 0, i32 6
  store ptr %63, ptr %65, align 8, !tbaa !74
  br label %76

66:                                               ; preds = %51
  %67 = load ptr, ptr %4, align 8, !tbaa !68
  %68 = getelementptr inbounds nuw %struct.ssl_excert_st, ptr %67, i32 0, i32 1
  %69 = load ptr, ptr %68, align 8, !tbaa !82
  %70 = load ptr, ptr %4, align 8, !tbaa !68
  %71 = getelementptr inbounds nuw %struct.ssl_excert_st, ptr %70, i32 0, i32 0
  %72 = load i32, ptr %71, align 8, !tbaa !83
  %73 = call ptr @load_key(ptr noundef %69, i32 noundef %72, i32 noundef 0, ptr noundef null, ptr noundef null, ptr noundef @.str.86)
  %74 = load ptr, ptr %4, align 8, !tbaa !68
  %75 = getelementptr inbounds nuw %struct.ssl_excert_st, ptr %74, i32 0, i32 6
  store ptr %73, ptr %75, align 8, !tbaa !74
  br label %76

76:                                               ; preds = %66, %56
  %77 = load ptr, ptr %4, align 8, !tbaa !68
  %78 = getelementptr inbounds nuw %struct.ssl_excert_st, ptr %77, i32 0, i32 6
  %79 = load ptr, ptr %78, align 8, !tbaa !74
  %80 = icmp eq ptr %79, null
  br i1 %80, label %81, label %82

81:                                               ; preds = %76
  store i32 0, ptr %2, align 4
  store i32 1, ptr %5, align 4
  br label %103

82:                                               ; preds = %76
  %83 = load ptr, ptr %4, align 8, !tbaa !68
  %84 = getelementptr inbounds nuw %struct.ssl_excert_st, ptr %83, i32 0, i32 4
  %85 = load ptr, ptr %84, align 8, !tbaa !86
  %86 = icmp ne ptr %85, null
  br i1 %86, label %87, label %97

87:                                               ; preds = %82
  %88 = load ptr, ptr %4, align 8, !tbaa !68
  %89 = getelementptr inbounds nuw %struct.ssl_excert_st, ptr %88, i32 0, i32 4
  %90 = load ptr, ptr %89, align 8, !tbaa !86
  %91 = load ptr, ptr %4, align 8, !tbaa !68
  %92 = getelementptr inbounds nuw %struct.ssl_excert_st, ptr %91, i32 0, i32 7
  %93 = call i32 @load_certs(ptr noundef %90, i32 noundef 0, ptr noundef %92, ptr noundef null, ptr noundef @.str.87)
  %94 = icmp ne i32 %93, 0
  br i1 %94, label %96, label %95

95:                                               ; preds = %87
  store i32 0, ptr %2, align 4
  store i32 1, ptr %5, align 4
  br label %103

96:                                               ; preds = %87
  br label %97

97:                                               ; preds = %96, %82
  br label %98

98:                                               ; preds = %97
  %99 = load ptr, ptr %4, align 8, !tbaa !68
  %100 = getelementptr inbounds nuw %struct.ssl_excert_st, ptr %99, i32 0, i32 9
  %101 = load ptr, ptr %100, align 8, !tbaa !70
  store ptr %101, ptr %4, align 8, !tbaa !68
  br label %25, !llvm.loop !87

102:                                              ; preds = %25
  store i32 1, ptr %2, align 4
  store i32 1, ptr %5, align 4
  br label %103

103:                                              ; preds = %102, %95, %81, %50, %33, %21, %10
  call void @llvm.lifetime.end.p0(i64 8, ptr %4) #10
  %104 = load i32, ptr %2, align 4
  ret i32 %104
}