; Function Attrs: nounwind uwtable
define range(i32 0, 2) i32 @load_excert(ptr noundef captures(none) %0) local_unnamed_addr #0 {
  %2 = load ptr, ptr %0, align 8, !tbaa !60
  %3 = icmp eq ptr %2, null
  br i1 %3, label %.loopexit, label %4

4:                                                ; preds = %1
  %5 = getelementptr inbounds nuw i8, ptr %2, i64 8
  %6 = load ptr, ptr %5, align 8, !tbaa !61
  %7 = icmp eq ptr %6, null
  br i1 %7, label %8, label %.preheader

.preheader:                                       ; preds = %8, %4
  br label %20

8:                                                ; preds = %4
  %9 = getelementptr inbounds nuw i8, ptr %2, i64 72
  %10 = load ptr, ptr %9, align 8, !tbaa !46
  %11 = icmp eq ptr %10, null
  br i1 %11, label %.preheader.i, label %.preheader

.preheader.i:                                     ; preds = %8, %.preheader.i
  %.09.i = phi ptr [ %19, %.preheader.i ], [ %2, %8 ]
  %12 = getelementptr inbounds nuw i8, ptr %.09.i, i64 40
  %13 = load ptr, ptr %12, align 8, !tbaa !52
  tail call void @X509_free(ptr noundef %13) #6
  %14 = getelementptr inbounds nuw i8, ptr %.09.i, i64 48
  %15 = load ptr, ptr %14, align 8, !tbaa !53
  tail call void @EVP_PKEY_free(ptr noundef %15) #6
  %16 = getelementptr inbounds nuw i8, ptr %.09.i, i64 56
  %17 = load ptr, ptr %16, align 8, !tbaa !54
  tail call void @OSSL_STACK_OF_X509_free(ptr noundef %17) #6
  %18 = getelementptr inbounds nuw i8, ptr %.09.i, i64 72
  %19 = load ptr, ptr %18, align 8, !tbaa !46
  tail call void @CRYPTO_free(ptr noundef nonnull %.09.i, ptr noundef nonnull @.str.26, i32 noundef 1092) #6
  %.not.i = icmp eq ptr %19, null
  br i1 %.not.i, label %ssl_excert_free.exit, label %.preheader.i, !llvm.loop !59

ssl_excert_free.exit:                             ; preds = %.preheader.i
  store ptr null, ptr %0, align 8, !tbaa !60
  br label %.loopexit

20:                                               ; preds = %.preheader, %52
  %.032 = phi ptr [ %54, %52 ], [ %2, %.preheader ]
  %21 = getelementptr inbounds nuw i8, ptr %.032, i64 8
  %22 = load ptr, ptr %21, align 8, !tbaa !61
  %23 = icmp eq ptr %22, null
  br i1 %23, label %24, label %27

24:                                               ; preds = %20
  %25 = load ptr, ptr @bio_err, align 8, !tbaa !8
  %26 = tail call i32 (ptr, ptr, ...) @BIO_printf(ptr noundef %25, ptr noundef nonnull @.str.84) #6
  br label %.loopexit

27:                                               ; preds = %20
  %28 = load i32, ptr %.032, align 8, !tbaa !62
  %29 = tail call ptr @load_cert_pass(ptr noundef nonnull %22, i32 noundef %28, i32 noundef 1, ptr noundef null, ptr noundef nonnull @.str.85) #6
  %30 = getelementptr inbounds nuw i8, ptr %.032, i64 40
  store ptr %29, ptr %30, align 8, !tbaa !52
  %31 = icmp eq ptr %29, null
  br i1 %31, label %.loopexit, label %32

32:                                               ; preds = %27
  %33 = getelementptr inbounds nuw i8, ptr %.032, i64 24
  %34 = load ptr, ptr %33, align 8, !tbaa !63
  %.not29 = icmp eq ptr %34, null
  br i1 %.not29, label %39, label %35

35:                                               ; preds = %32
  %36 = getelementptr inbounds nuw i8, ptr %.032, i64 16
  %37 = load i32, ptr %36, align 8, !tbaa !64
  %38 = tail call ptr @load_key(ptr noundef nonnull %34, i32 noundef %37, i32 noundef 0, ptr noundef null, ptr noundef null, ptr noundef nonnull @.str.86) #6
  br label %43

39:                                               ; preds = %32
  %40 = load ptr, ptr %21, align 8, !tbaa !61
  %41 = load i32, ptr %.032, align 8, !tbaa !62
  %42 = tail call ptr @load_key(ptr noundef %40, i32 noundef %41, i32 noundef 0, ptr noundef null, ptr noundef null, ptr noundef nonnull @.str.86) #6
  br label %43

43:                                               ; preds = %39, %35
  %.sink = phi ptr [ %42, %39 ], [ %38, %35 ]
  %44 = getelementptr inbounds nuw i8, ptr %.032, i64 48
  store ptr %.sink, ptr %44, align 8, !tbaa !53
  %45 = icmp eq ptr %.sink, null
  br i1 %45, label %.loopexit, label %46

46:                                               ; preds = %43
  %47 = getelementptr inbounds nuw i8, ptr %.032, i64 32
  %48 = load ptr, ptr %47, align 8, !tbaa !65
  %.not30 = icmp eq ptr %48, null
  br i1 %.not30, label %52, label %49

49:                                               ; preds = %46
  %50 = getelementptr inbounds nuw i8, ptr %.032, i64 56
  %51 = tail call i32 @load_certs(ptr noundef nonnull %48, i32 noundef 0, ptr noundef nonnull %50, ptr noundef null, ptr noundef nonnull @.str.87) #6
  %.not31 = icmp eq i32 %51, 0
  br i1 %.not31, label %.loopexit, label %52

52:                                               ; preds = %46, %49
  %53 = getelementptr inbounds nuw i8, ptr %.032, i64 72
  %54 = load ptr, ptr %53, align 8, !tbaa !46
  %.not = icmp eq ptr %54, null
  br i1 %.not, label %.loopexit, label %20, !llvm.loop !66

.loopexit:                                        ; preds = %52, %49, %43, %27, %1, %24, %ssl_excert_free.exit
  %.024 = phi i32 [ 1, %ssl_excert_free.exit ], [ 0, %24 ], [ 1, %1 ], [ 1, %52 ], [ 0, %49 ], [ 0, %43 ], [ 0, %27 ]
  ret i32 %.024
}